Certificate:
    Data:
        Version: 3 (0x2)
        Serial Number:
            12:ca:be:48:69:23:26:cf:63:56:06:10:2c:00:eb:bf:df:0c:8d:27
        Signature Algorithm: sha256WithRSAEncryption
        Issuer: C = AU, ST = Some-State, O = Internet Widgits Pty Ltd, CN = localhost
        Validity
            Not Before: Sep 10 01:37:11 2020 GMT
            Not After : Oct 10 01:37:11 2020 GMT
        Subject: C = AU, ST = Some-State, O = Internet Widgits Pty Ltd, CN = localhost
        Subject Public Key Info:
            Public Key Algorithm: rsaEncryption
                RSA Public-Key: (2048 bit)
                Modulus:
                    00:b1:af:a3:e1:c9:47:a9:7d:de:ec:46:c0:8e:ff:
                    0e:32:31:9a:65:b3:94:9d:37:0b:25:b5:c9:e2:75:
                    10:57:a1:e4:66:c1:ab:2e:de:6f:7f:61:b9:a7:8a:
                    6f:6f:ba:8d:95:c2:f3:5e:2e:71:f2:23:7b:bb:72:
                    df:7a:3a:35:7e:fc:a4:6d:e1:e1:77:0e:23:9b:57:
                    f4:02:77:c2:12:ca:fc:7a:01:9a:4b:0b:35:a5:3b:
                    ee:8c:f4:3a:4b:55:b3:e6:2e:30:9d:fc:ac:df:51:
                    9a:62:16:8f:c3:ff:41:d7:07:df:f3:78:d8:73:e6:
                    0c:2c:b9:b5:ed:66:67:d5:84:24:bc:76:fa:f2:f3:
                    e3:8f:ac:8d:15:84:36:7a:6b:2e:bb:d8:88:3a:bc:
                    ef:8e:f3:f1:b1:27:74:c8:b9:c4:61:6b:d7:49:f3:
                    5b:90:7e:60:e9:db:a4:be:56:ca:a4:b3:4d:fc:28:
                    d0:23:15:57:8c:b8:d1:46:46:10:60:9d:88:c7:0e:
                    57:e7:57:25:97:32:9c:95:ef:d0:a5:97:a3:f6:86:
                    cc:a2:2f:7c:50:d5:e1:7b:60:23:69:ee:d8:55:ef:
                    96:ca:2a:e4:f9:fa:83:00:b6:bc:ea:97:13:98:d9:
                    23:22:97:8b:96:a8:1e:d7:25:1f:64:e4:3c:37:88:
                    d3:df
                Exponent: 65537 (0x10001)
        X509v3 extensions:
            X509v3 Subject Key Identifier: 
                80:4C:5A:C3:14:DD:9C:F5:C2:C4:34:BF:49:EA:A9:F7:C4:06:21:29
            X509v3 Authority Key Identifier: 
                keyid:80:4C:5A:C3:14:DD:9C:F5:C2:C4:34:BF:49:EA:A9:F7:C4:06:21:29

            X509v3 Basic Constraints: critical
                CA:TRUE
    Signature Algorithm: sha256WithRSAEncryption
         7c:8b:c2:e8:42:fe:cc:19:29:66:80:7a:74:3b:3a:24:ae:a8:
         6a:cc:5e:ef:20:22:fd:a4:e4:f1:17:41:7d:23:0d:2d:f3:75:
         36:48:47:96:c3:5b:5e:f6:10:46:a2:d9:b6:23:db:e0:51:f4:
         e4:66:69:4a:16:e7:fa:34:e3:44:ab:d7:a8:66:6d:ad:b6:d8:
         69:99:0c:94:ac:c2:06:8b:76:f6:a7:9f:5a:56:9a:21:76:08:
         41:49:da:24:1e:2c:8d:9d:d6:78:f2:61:47:29:d9:e9:34:80:
         7c:0b:79:56:8c:4e:f1:e6:07:12:4b:4c:23:10:88:3e:f8:44:
         bb:56:a9:71:3e:59:82:08:ce:43:d4:68:e6:d8:ac:9a:02:fd:
         6c:2d:a4:32:07:41:b6:27:34:49:d7:8b:ab:a2:9c:4a:6e:53:
         9a:91:29:3a:cf:84:72:1f:13:39:68:fd:ab:7b:68:3c:cb:d6:
         51:7e:99:8d:6c:ed:28:ba:ce:37:86:e5:e1:a4:6f:e5:46:34:
         82:74:03:57:ee:9b:2c:3d:e4:ca:57:d1:77:49:9e:21:44:2a:
         5a:47:2c:33:43:d3:14:c1:99:b3:2c:23:6a:aa:f9:1c:bc:f9:
         c2:1f:13:60:ee:5f:48:bc:cf:4c:bc:54:99:8e:53:e2:d2:36:
         1e:73:0e:98
-----BEGIN CERTIFICATE-----
MIIDkzCCAnugAwIBAgIUEsq+SGkjJs9jVgYQLADrv98MjScwDQYJKoZIhvcNAQEL
BQAwWTELMAkGA1UEBhMCQVUxEzARBgNVBAgMClNvbWUtU3RhdGUxITAfBgNVBAoM
GEludGVybmV0IFdpZGdpdHMgUHR5IEx0ZDESMBAGA1UEAwwJbG9jYWxob3N0MB4X
DTIwMDkxMDAxMzcxMVoXDTIwMTAxMDAxMzcxMVowWTELMAkGA1UEBhMCQVUxEzAR
BgNVBAgMClNvbWUtU3RhdGUxITAfBgNVBAoMGEludGVybmV0IFdpZGdpdHMgUHR5
IEx0ZDESMBAGA1UEAwwJbG9jYWxob3N0MIIBIjANBgkqhkiG9w0BAQEFAAOCAQ8A
MIIBCgKCAQEAsa+j4clHqX3e7EbAjv8OMjGaZbOUnTcLJbXJ4nUQV6HkZsGrLt5v
f2G5p4pvb7qNlcLzXi5x8iN7u3Lfejo1fvykbeHhdw4jm1f0AnfCEsr8egGaSws1
pTvujPQ6S1Wz5i4wnfys31GaYhaPw/9B1wff83jYc+YMLLm17WZn1YQkvHb68vPj
j6yNFYQ2emsuu9iIOrzvjvPxsSd0yLnEYWvXSfNbkH5g6dukvlbKpLNN/CjQIxVX
jLjRRkYQYJ2Ixw5X51cllzKcle/QpZej9obMoi98UNXhe2Ajae7YVe+Wyirk+fqD
ALa86pcTmNkjIpeLlqge1yUfZOQ8N4jT3wIDAQABo1MwUTAdBgNVHQ4EFgQUgExa
wxTdnPXCxDS/Seqp98QGISkwHwYDVR0jBBgwFoAUgExawxTdnPXCxDS/Seqp98QG
ISkwDwYDVR0TAQH/BAUwAwEB/zANBgkqhkiG9w0BAQsFAAOCAQEAfIvC6EL+zBkp
ZoB6dDs6JK6oasxe7yAi/aTk8RdBfSMNLfN1NkhHlsNbXvYQRqLZtiPb4FH05GZp
Shbn+jTjRKvXqGZtrbbYaZkMlKzCBot29qefWlaaIXYIQUnaJB4sjZ3WePJhRynZ
6TSAfAt5VoxO8eYHEktMIxCIPvhEu1apcT5ZggjOQ9Ro5tismgL9bC2kMgdBtic0
SdeLq6KcSm5TmpEpOs+Ech8TOWj9q3toPMvWUX6ZjWztKLrON4bl4aRv5UY0gnQD
V+6bLD3kylfRd0meIUQqWkcsM0PTFMGZsywjaqr5HLz5wh8TYO5fSLzPTLxUmY5T
4tI2HnMOmA==
-----END CERTIFICATE-----
